; Function Attrs: nounwind uwtable
define ptr @l_Array_mapMUnsafe_map___at_Lean_Compiler_LCNF_UnreachableBranches_Value_truncate_go___spec__6(ptr noundef %0, ptr noundef %1, ptr noundef %2, i64 noundef %3, i64 noundef %4, ptr noundef %5) local_unnamed_addr #1 {
  %.not59 = icmp ult i64 %4, %3
  %7 = ptrtoint ptr %1 to i64
  %8 = and i64 %7, 1
  br i1 %.not59, label %.lr.ph, label %._crit_edge

.lr.ph:                                           ; preds = %6
  %.not55 = icmp eq i64 %8, 0
  %9 = ptrtoint ptr %0 to i64
  %10 = and i64 %9, 1
  %.not56 = icmp eq i64 %10, 0
  br label %27

._crit_edge:                                      ; preds = %lean_dec.exit, %6
  %.027.lcssa = phi ptr [ %5, %6 ], [ %.0.i.i44, %lean_dec.exit ]
  %.not57 = icmp eq i64 %8, 0
  br i1 %.not57, label %11, label %lean_dec.exit30

11:                                               ; preds = %._crit_edge
  %12 = load i32, ptr %1, align 4, !tbaa !4
  %13 = icmp sgt i32 %12, 1
  br i1 %13, label %14, label %16, !prof !13

14:                                               ; preds = %11
  %15 = add nsw i32 %12, -1
  store i32 %15, ptr %1, align 4, !tbaa !4
  br label %lean_dec.exit30

16:                                               ; preds = %11
  %.not.i = icmp eq i32 %12, 0
  br i1 %.not.i, label %lean_dec.exit30, label %17

17:                                               ; preds = %16
  tail call void @lean_dec_ref_cold(ptr noundef nonnull %1) #8
  br label %lean_dec.exit30

lean_dec.exit30:                                  ; preds = %17, %16, %14, %._crit_edge
  %18 = ptrtoint ptr %0 to i64
  %19 = and i64 %18, 1
  %.not58 = icmp eq i64 %19, 0
  br i1 %.not58, label %20, label %83

20:                                               ; preds = %lean_dec.exit30
  %21 = load i32, ptr %0, align 4, !tbaa !4
  %22 = icmp sgt i32 %21, 1
  br i1 %22, label %23, label %25, !prof !13

23:                                               ; preds = %20
  %24 = add nsw i32 %21, -1
  store i32 %24, ptr %0, align 4, !tbaa !4
  br label %83

25:                                               ; preds = %20
  %.not.i32 = icmp eq i32 %21, 0
  br i1 %.not.i32, label %83, label %26

26:                                               ; preds = %25
  tail call void @lean_dec_ref_cold(ptr noundef nonnull %0) #8
  br label %83

27:                                               ; preds = %.lr.ph, %lean_dec.exit
  %.02561 = phi i64 [ %4, %.lr.ph ], [ %67, %lean_dec.exit ]
  %.02760 = phi ptr [ %5, %.lr.ph ], [ %.0.i.i44, %lean_dec.exit ]
  %28 = getelementptr inbounds nuw i8, ptr %.02760, i64 24
  %29 = getelementptr inbounds nuw [0 x ptr], ptr %28, i64 0, i64 %.02561
  %30 = load ptr, ptr %29, align 8, !tbaa !11
  %31 = ptrtoint ptr %30 to i64
  %32 = and i64 %31, 1
  %.not.i34 = icmp eq i64 %32, 0
  br i1 %.not.i34, label %33, label %lean_array_uget.exit

33:                                               ; preds = %27
  %.val.i.i = load i32, ptr %30, align 4, !tbaa !4
  %34 = icmp sgt i32 %.val.i.i, 0
  br i1 %34, label %35, label %37, !prof !13

35:                                               ; preds = %33
  %36 = add nuw i32 %.val.i.i, 1
  store i32 %36, ptr %30, align 4, !tbaa !4
  br label %lean_array_uget.exit

37:                                               ; preds = %33
  %.not.i.i = icmp eq i32 %.val.i.i, 0
  br i1 %.not.i.i, label %lean_array_uget.exit, label %38

38:                                               ; preds = %37
  tail call void @lean_inc_ref_cold(ptr noundef nonnull %30) #8
  br label %lean_array_uget.exit

lean_array_uget.exit:                             ; preds = %27, %35, %37, %38
  %.val.i.i35 = load i32, ptr %.02760, align 4, !tbaa !4
  %39 = icmp eq i32 %.val.i.i35, 1
  br i1 %39, label %lean_ensure_exclusive_array.exit.i, label %40

40:                                               ; preds = %lean_array_uget.exit
  %41 = tail call ptr @lean_copy_expand_array(ptr noundef nonnull %.02760, i1 noundef zeroext false) #8
  br label %lean_ensure_exclusive_array.exit.i

lean_ensure_exclusive_array.exit.i:               ; preds = %40, %lean_array_uget.exit
  %.0.i.i = phi ptr [ %41, %40 ], [ %.02760, %lean_array_uget.exit ]
  %42 = getelementptr inbounds nuw i8, ptr %.0.i.i, i64 24
  %43 = getelementptr inbounds nuw ptr, ptr %42, i64 %.02561
  %44 = load ptr, ptr %43, align 8, !tbaa !11
  %45 = ptrtoint ptr %44 to i64
  %46 = and i64 %45, 1
  %.not.i36 = icmp eq i64 %46, 0
  br i1 %.not.i36, label %47, label %lean_array_uset.exit

47:                                               ; preds = %lean_ensure_exclusive_array.exit.i
  %48 = load i32, ptr %44, align 4, !tbaa !4
  %49 = icmp sgt i32 %48, 1
  br i1 %49, label %50, label %52, !prof !13

50:                                               ; preds = %47
  %51 = add nsw i32 %48, -1
  store i32 %51, ptr %44, align 4, !tbaa !4
  br label %lean_array_uset.exit

52:                                               ; preds = %47
  %.not.i.i37 = icmp eq i32 %48, 0
  br i1 %.not.i.i37, label %lean_array_uset.exit, label %53

53:                                               ; preds = %52
  tail call void @lean_dec_ref_cold(ptr noundef nonnull %44) #8
  br label %lean_array_uset.exit

lean_array_uset.exit:                             ; preds = %lean_ensure_exclusive_array.exit.i, %50, %52, %53
  store ptr inttoptr (i64 1 to ptr), ptr %43, align 8, !tbaa !11
  br i1 %.not55, label %54, label %lean_inc.exit31

54:                                               ; preds = %lean_array_uset.exit
  %.val.i = load i32, ptr %1, align 4, !tbaa !4
  %55 = icmp sgt i32 %.val.i, 0
  br i1 %55, label %56, label %58, !prof !13

56:                                               ; preds = %54
  %57 = add nuw i32 %.val.i, 1
  store i32 %57, ptr %1, align 4, !tbaa !4
  br label %lean_inc.exit31

58:                                               ; preds = %54
  %.not.i38 = icmp eq i32 %.val.i, 0
  br i1 %.not.i38, label %lean_inc.exit31, label %59

59:                                               ; preds = %58
  tail call void @lean_inc_ref_cold(ptr noundef nonnull %1) #8
  br label %lean_inc.exit31

lean_inc.exit31:                                  ; preds = %59, %58, %56, %lean_array_uset.exit
  br i1 %.not56, label %60, label %lean_inc.exit

60:                                               ; preds = %lean_inc.exit31
  %.val.i39 = load i32, ptr %0, align 4, !tbaa !4
  %61 = icmp sgt i32 %.val.i39, 0
  br i1 %61, label %62, label %64, !prof !13

62:                                               ; preds = %60
  %63 = add nuw i32 %.val.i39, 1
  store i32 %63, ptr %0, align 4, !tbaa !4
  br label %lean_inc.exit

64:                                               ; preds = %60
  %.not.i40 = icmp eq i32 %.val.i39, 0
  br i1 %.not.i40, label %lean_inc.exit, label %65

65:                                               ; preds = %64
  tail call void @lean_inc_ref_cold(ptr noundef nonnull %0) #8
  br label %lean_inc.exit

lean_inc.exit:                                    ; preds = %65, %64, %62, %lean_inc.exit31
  %66 = tail call ptr @l_Lean_Compiler_LCNF_UnreachableBranches_Value_truncate_go(ptr noundef %0, ptr noundef %30, ptr noundef %1, ptr noundef %2)
  %67 = add nuw i64 %.02561, 1
  %.val.i.i42 = load i32, ptr %.0.i.i, align 4, !tbaa !4
  %68 = icmp eq i32 %.val.i.i42, 1
  br i1 %68, label %lean_ensure_exclusive_array.exit.i43, label %69

69:                                               ; preds = %lean_inc.exit
  %70 = tail call ptr @lean_copy_expand_array(ptr noundef nonnull %.0.i.i, i1 noundef zeroext false) #8
  br label %lean_ensure_exclusive_array.exit.i43

lean_ensure_exclusive_array.exit.i43:             ; preds = %69, %lean_inc.exit
  %.0.i.i44 = phi ptr [ %70, %69 ], [ %.0.i.i, %lean_inc.exit ]
  %71 = getelementptr inbounds nuw i8, ptr %.0.i.i44, i64 24
  %72 = getelementptr inbounds nuw ptr, ptr %71, i64 %.02561
  %73 = load ptr, ptr %72, align 8, !tbaa !11
  %74 = ptrtoint ptr %73 to i64
  %75 = and i64 %74, 1
  %.not.i45 = icmp eq i64 %75, 0
  br i1 %.not.i45, label %76, label %lean_dec.exit

76:                                               ; preds = %lean_ensure_exclusive_array.exit.i43
  %77 = load i32, ptr %73, align 4, !tbaa !4
  %78 = icmp sgt i32 %77, 1
  br i1 %78, label %79, label %81, !prof !13

79:                                               ; preds = %76
  %80 = add nsw i32 %77, -1
  store i32 %80, ptr %73, align 4, !tbaa !4
  br label %lean_dec.exit

81:                                               ; preds = %76
  %.not.i.i46 = icmp eq i32 %77, 0
  br i1 %.not.i.i46, label %lean_dec.exit, label %82

82:                                               ; preds = %81
  tail call void @lean_dec_ref_cold(ptr noundef nonnull %73) #8
  br label %lean_dec.exit

lean_dec.exit:                                    ; preds = %82, %81, %79, %lean_ensure_exclusive_array.exit.i43
  store ptr %66, ptr %72, align 8, !tbaa !11
  %exitcond.not = icmp eq i64 %67, %3
  br i1 %exitcond.not, label %._crit_edge, label %27

83:                                               ; preds = %26, %25, %23, %lean_dec.exit30
  ret ptr %.027.lcssa
}